; Function Attrs: mustprogress uwtable
define void @_ZN3net15NewStreamBufferEPNS_19QuicBufferAllocatorEm(ptr dead_on_unwind noalias writable writeonly sret(%"class.std::unique_ptr") align 8 captures(none) initializes((0, 16)) %0, ptr noundef %1, i64 noundef %2) local_unnamed_addr #3 personality ptr @__gxx_personality_v0 {
  %4 = load ptr, ptr %1, align 8, !tbaa !39
  %5 = getelementptr inbounds nuw i8, ptr %4, i64 16
  %6 = load ptr, ptr %5, align 8
  %7 = tail call noundef ptr %6(ptr noundef nonnull align 8 dereferenceable(8) %1, i64 noundef %2)
  %8 = ptrtoint ptr %1 to i64
  store i64 %8, ptr %0, align 8, !tbaa !41
  %9 = getelementptr inbounds nuw i8, ptr %0, i64 8
  store ptr %7, ptr %9, align 8, !tbaa !42
  ret void
}